target datalayout = "e-m:e-p270:32:32-p271:32:32-p272:64:64-i64:64-i128:128-f80:128-n8:16:32:64-S128"
target triple = "x86_64-pc-linux-gnu"

%struct.AVThreadMessageQueue = type { ptr, %union.pthread_mutex_t, %union.pthread_cond_t, %union.pthread_cond_t, i32, i32, i32, ptr }
%union.pthread_mutex_t = type { %struct.__pthread_mutex_s }
%struct.__pthread_mutex_s = type { i32, i32, i32, i32, i32, i16, i16, %struct.__pthread_internal_list }
%struct.__pthread_internal_list = type { ptr, ptr }
%union.pthread_cond_t = type { %struct.__pthread_cond_s }
%struct.__pthread_cond_s = type { %union.__atomic_wide_counter, %union.__atomic_wide_counter, [2 x i32], [2 x i32], i32, i32, [2 x i32] }
%union.__atomic_wide_counter = type { i64 }

; Function Attrs: nounwind uwtable
define i32 @av_thread_message_queue_alloc(ptr noundef %0, i32 noundef %1, i32 noundef %2) #0 {
  %4 = alloca i32, align 4
  %5 = alloca ptr, align 8
  %6 = alloca i32, align 4
  %7 = alloca i32, align 4
  %8 = alloca ptr, align 8
  %9 = alloca i32, align 4
  %10 = alloca i32, align 4
  store ptr %0, ptr %5, align 8, !tbaa !4
  store i32 %1, ptr %6, align 4, !tbaa !10
  store i32 %2, ptr %7, align 4, !tbaa !10
  call void @llvm.lifetime.start.p0(i64 8, ptr %8) #4
  call void @llvm.lifetime.start.p0(i64 4, ptr %9) #4
  store i32 0, ptr %9, align 4, !tbaa !10
  %11 = load i32, ptr %6, align 4, !tbaa !10
  %12 = load i32, ptr %7, align 4, !tbaa !10
  %13 = udiv i32 2147483647, %12
  %14 = icmp ugt i32 %11, %13
  br i1 %14, label %15, label %16

15:                                               ; preds = %3
  store i32 -22, ptr %4, align 4
  store i32 1, ptr %10, align 4
  br label %82

16:                                               ; preds = %3
  %17 = call noalias ptr @av_mallocz(i64 noundef 168)
  store ptr %17, ptr %8, align 8, !tbaa !12
  %18 = icmp ne ptr %17, null
  br i1 %18, label %20, label %19

19:                                               ; preds = %16
  store i32 -12, ptr %4, align 4
  store i32 1, ptr %10, align 4
  br label %82

20:                                               ; preds = %16
  %21 = load ptr, ptr %8, align 8, !tbaa !12
  %22 = getelementptr inbounds nuw %struct.AVThreadMessageQueue, ptr %21, i32 0, i32 1
  %23 = call i32 @pthread_mutex_init(ptr noundef %22, ptr noundef null) #4
  store i32 %23, ptr %9, align 4, !tbaa !10
  %24 = icmp ne i32 %23, 0
  br i1 %24, label %25, label %29

25:                                               ; preds = %20
  %26 = load ptr, ptr %8, align 8, !tbaa !12
  call void @av_free(ptr noundef %26)
  %27 = load i32, ptr %9, align 4, !tbaa !10
  %28 = sub nsw i32 0, %27
  store i32 %28, ptr %4, align 4
  store i32 1, ptr %10, align 4
  br label %82

29:                                               ; preds = %20
  %30 = load ptr, ptr %8, align 8, !tbaa !12
  %31 = getelementptr inbounds nuw %struct.AVThreadMessageQueue, ptr %30, i32 0, i32 2
  %32 = call i32 @pthread_cond_init(ptr noundef %31, ptr noundef null) #4
  store i32 %32, ptr %9, align 4, !tbaa !10
  %33 = icmp ne i32 %32, 0
  br i1 %33, label %34, label %41

34:                                               ; preds = %29
  %35 = load ptr, ptr %8, align 8, !tbaa !12
  %36 = getelementptr inbounds nuw %struct.AVThreadMessageQueue, ptr %35, i32 0, i32 1
  %37 = call i32 @pthread_mutex_destroy(ptr noundef %36) #4
  %38 = load ptr, ptr %8, align 8, !tbaa !12
  call void @av_free(ptr noundef %38)
  %39 = load i32, ptr %9, align 4, !tbaa !10
  %40 = sub nsw i32 0, %39
  store i32 %40, ptr %4, align 4
  store i32 1, ptr %10, align 4
  br label %82

41:                                               ; preds = %29
  %42 = load ptr, ptr %8, align 8, !tbaa !12
  %43 = getelementptr inbounds nuw %struct.AVThreadMessageQueue, ptr %42, i32 0, i32 3
  %44 = call i32 @pthread_cond_init(ptr noundef %43, ptr noundef null) #4
  store i32 %44, ptr %9, align 4, !tbaa !10
  %45 = icmp ne i32 %44, 0
  br i1 %45, label %46, label %56

46:                                               ; preds = %41
  %47 = load ptr, ptr %8, align 8, !tbaa !12
  %48 = getelementptr inbounds nuw %struct.AVThreadMessageQueue, ptr %47, i32 0, i32 2
  %49 = call i32 @pthread_cond_destroy(ptr noundef %48) #4
  %50 = load ptr, ptr %8, align 8, !tbaa !12
  %51 = getelementptr inbounds nuw %struct.AVThreadMessageQueue, ptr %50, i32 0, i32 1
  %52 = call i32 @pthread_mutex_destroy(ptr noundef %51) #4
  %53 = load ptr, ptr %8, align 8, !tbaa !12
  call void @av_free(ptr noundef %53)
  %54 = load i32, ptr %9, align 4, !tbaa !10
  %55 = sub nsw i32 0, %54
  store i32 %55, ptr %4, align 4
  store i32 1, ptr %10, align 4
  br label %82

56:                                               ; preds = %41
  %57 = load i32, ptr %6, align 4, !tbaa !10
  %58 = zext i32 %57 to i64
  %59 = load i32, ptr %7, align 4, !tbaa !10
  %60 = zext i32 %59 to i64
  %61 = call ptr @av_fifo_alloc2(i64 noundef %58, i64 noundef %60, i32 noundef 0)
  %62 = load ptr, ptr %8, align 8, !tbaa !12
  %63 = getelementptr inbounds nuw %struct.AVThreadMessageQueue, ptr %62, i32 0, i32 0
  store ptr %61, ptr %63, align 8, !tbaa !14
  %64 = icmp ne ptr %61, null
  br i1 %64, label %76, label %65

65:                                               ; preds = %56
  %66 = load ptr, ptr %8, align 8, !tbaa !12
  %67 = getelementptr inbounds nuw %struct.AVThreadMessageQueue, ptr %66, i32 0, i32 3
  %68 = call i32 @pthread_cond_destroy(ptr noundef %67) #4
  %69 = load ptr, ptr %8, align 8, !tbaa !12
  %70 = getelementptr inbounds nuw %struct.AVThreadMessageQueue, ptr %69, i32 0, i32 2
  %71 = call i32 @pthread_cond_destroy(ptr noundef %70) #4
  %72 = load ptr, ptr %8, align 8, !tbaa !12
  %73 = getelementptr inbounds nuw %struct.AVThreadMessageQueue, ptr %72, i32 0, i32 1
  %74 = call i32 @pthread_mutex_destroy(ptr noundef %73) #4
  %75 = load ptr, ptr %8, align 8, !tbaa !12
  call void @av_free(ptr noundef %75)
  store i32 -12, ptr %4, align 4
  store i32 1, ptr %10, align 4
  br label %82

76:                                               ; preds = %56
  %77 = load i32, ptr %7, align 4, !tbaa !10
  %78 = load ptr, ptr %8, align 8, !tbaa !12
  %79 = getelementptr inbounds nuw %struct.AVThreadMessageQueue, ptr %78, i32 0, i32 6
  store i32 %77, ptr %79, align 8, !tbaa !17
  %80 = load ptr, ptr %8, align 8, !tbaa !12
  %81 = load ptr, ptr %5, align 8, !tbaa !4
  store ptr %80, ptr %81, align 8, !tbaa !12
  store i32 0, ptr %4, align 4
  store i32 1, ptr %10, align 4
  br label %82

82:                                               ; preds = %76, %65, %46, %34, %25, %19, %15
  call void @llvm.lifetime.end.p0(i64 4, ptr %9) #4
  call void @llvm.lifetime.end.p0(i64 8, ptr %8) #4
  %83 = load i32, ptr %4, align 4
  ret i32 %83
}