; Function Attrs: nounwind uwtable
define range(i32 -2147483647, -2147483648) i32 @av_thread_message_queue_alloc(ptr noundef writeonly captures(none) %0, i32 noundef %1, i32 noundef %2) local_unnamed_addr #0 {
  %4 = udiv i32 2147483647, %2
  %5 = icmp ugt i32 %1, %4
  br i1 %5, label %36, label %6

6:                                                ; preds = %3
  %7 = tail call noalias ptr @av_mallocz(i64 noundef 168) #5
  %.not = icmp eq ptr %7, null
  br i1 %.not, label %36, label %8

8:                                                ; preds = %6
  %9 = getelementptr inbounds nuw i8, ptr %7, i64 8
  %10 = tail call i32 @pthread_mutex_init(ptr noundef nonnull %9, ptr noundef null) #5
  %.not30 = icmp eq i32 %10, 0
  br i1 %.not30, label %13, label %11

11:                                               ; preds = %8
  tail call void @av_free(ptr noundef nonnull %7) #5
  %12 = sub nsw i32 0, %10
  br label %36

13:                                               ; preds = %8
  %14 = getelementptr inbounds nuw i8, ptr %7, i64 48
  %15 = tail call i32 @pthread_cond_init(ptr noundef nonnull %14, ptr noundef null) #5
  %.not31 = icmp eq i32 %15, 0
  br i1 %.not31, label %19, label %16

16:                                               ; preds = %13
  %17 = tail call i32 @pthread_mutex_destroy(ptr noundef nonnull %9) #5
  tail call void @av_free(ptr noundef nonnull %7) #5
  %18 = sub nsw i32 0, %15
  br label %36

19:                                               ; preds = %13
  %20 = getelementptr inbounds nuw i8, ptr %7, i64 96
  %21 = tail call i32 @pthread_cond_init(ptr noundef nonnull %20, ptr noundef null) #5
  %.not32 = icmp eq i32 %21, 0
  br i1 %.not32, label %26, label %22

22:                                               ; preds = %19
  %23 = tail call i32 @pthread_cond_destroy(ptr noundef nonnull %14) #5
  %24 = tail call i32 @pthread_mutex_destroy(ptr noundef nonnull %9) #5
  tail call void @av_free(ptr noundef nonnull %7) #5
  %25 = sub nsw i32 0, %21
  br label %36

26:                                               ; preds = %19
  %27 = zext nneg i32 %1 to i64
  %28 = zext i32 %2 to i64
  %29 = tail call ptr @av_fifo_alloc2(i64 noundef %27, i64 noundef %28, i32 noundef 0) #5
  store ptr %29, ptr %7, align 8, !tbaa !4
  %.not33 = icmp eq ptr %29, null
  br i1 %.not33, label %30, label %34

30:                                               ; preds = %26
  %31 = tail call i32 @pthread_cond_destroy(ptr noundef nonnull %20) #5
  %32 = tail call i32 @pthread_cond_destroy(ptr noundef nonnull %14) #5
  %33 = tail call i32 @pthread_mutex_destroy(ptr noundef nonnull %9) #5
  tail call void @av_free(ptr noundef nonnull %7) #5
  br label %36

34:                                               ; preds = %26
  %35 = getelementptr inbounds nuw i8, ptr %7, i64 152
  store i32 %2, ptr %35, align 8, !tbaa !11
  store ptr %7, ptr %0, align 8, !tbaa !12
  br label %36

36:                                               ; preds = %6, %3, %34, %30, %22, %16, %11
  %.0 = phi i32 [ %12, %11 ], [ %18, %16 ], [ %25, %22 ], [ 0, %34 ], [ -12, %30 ], [ -22, %3 ], [ -12, %6 ]
  ret i32 %.0
}